; Function Attrs: cold mustprogress nofree norecurse nosync nounwind optsize willreturn memory(write, argmem: readwrite, inaccessiblemem: none) uwtable
define internal noundef i32 @mpeg4video_parse_init(ptr noundef readonly captures(none) %0) #0 {
  %2 = load ptr, ptr %0, align 8, !tbaa !4
  %3 = getelementptr inbounds nuw i8, ptr %2, i64 9688
  store i32 1, ptr %3, align 8, !tbaa !12
  %4 = getelementptr inbounds nuw i8, ptr %2, i64 4972
  store i32 5, ptr %4, align 4, !tbaa !44
  %5 = getelementptr inbounds nuw i8, ptr %2, i64 960
  store i32 1, ptr %5, align 8, !tbaa !45
  %6 = getelementptr inbounds nuw i8, ptr %2, i64 5012
  store i32 1, ptr %6, align 4, !tbaa !46
  ret i32 0
}